; Function Attrs: nounwind memory(readwrite, argmem: read) uwtable
define internal fastcc range(i32 0, 2) i32 @arkode_butcher_order5f(ptr noundef readonly captures(address_is_null) %0, ptr noundef readonly captures(address_is_null) %1, ptr noundef readonly captures(address_is_null) %2, ptr noundef readonly captures(address_is_null) %3, ptr noundef readonly captures(address_is_null) %4, i32 noundef %5) unnamed_addr #10 {
  %7 = sext i32 %5 to i64
  %8 = tail call noalias ptr @calloc(i64 noundef %7, i64 noundef 8) #16
  %9 = tail call noalias ptr @calloc(i64 noundef %7, i64 noundef 8) #16
  %10 = icmp eq ptr %3, null
  %11 = icmp eq ptr %4, null
  %or.cond.i = or i1 %10, %11
  %12 = icmp eq ptr %8, null
  %or.cond3.i = or i1 %or.cond.i, %12
  %13 = icmp slt i32 %5, 1
  %or.cond5.i = or i1 %13, %or.cond3.i
  br i1 %or.cond5.i, label %arkode_butcher_mv.exit, label %.preheader.us.preheader.i

.preheader.us.preheader.i:                        ; preds = %6
  %14 = zext nneg i32 %5 to i64
  br label %.preheader.us.i

.preheader.us.i:                                  ; preds = %._crit_edge.us.i, %.preheader.us.preheader.i
  %indvars.iv40.i = phi i64 [ 0, %.preheader.us.preheader.i ], [ %indvars.iv.next41.i, %._crit_edge.us.i ]
  %15 = getelementptr inbounds nuw ptr, ptr %3, i64 %indvars.iv40.i
  %16 = load ptr, ptr %15, align 8, !tbaa !12
  %17 = getelementptr inbounds nuw double, ptr %8, i64 %indvars.iv40.i
  %.promoted.us.i = load double, ptr %17, align 8, !tbaa !18
  br label %18

18:                                               ; preds = %18, %.preheader.us.i
  %indvars.iv.i = phi i64 [ 0, %.preheader.us.i ], [ %indvars.iv.next.i, %18 ]
  %19 = phi double [ %.promoted.us.i, %.preheader.us.i ], [ %24, %18 ]
  %20 = getelementptr inbounds nuw double, ptr %16, i64 %indvars.iv.i
  %21 = load double, ptr %20, align 8, !tbaa !18
  %22 = getelementptr inbounds nuw double, ptr %4, i64 %indvars.iv.i
  %23 = load double, ptr %22, align 8, !tbaa !18
  %24 = tail call double @llvm.fmuladd.f64(double %21, double %23, double %19)
  %indvars.iv.next.i = add nuw nsw i64 %indvars.iv.i, 1
  %exitcond.not.i = icmp eq i64 %indvars.iv.next.i, %14
  br i1 %exitcond.not.i, label %._crit_edge.us.i, label %18

._crit_edge.us.i:                                 ; preds = %18
  store double %24, ptr %17, align 8, !tbaa !18
  %indvars.iv.next41.i = add nuw nsw i64 %indvars.iv40.i, 1
  %exitcond44.not.i = icmp eq i64 %indvars.iv.next41.i, %14
  br i1 %exitcond44.not.i, label %25, label %.preheader.us.i

arkode_butcher_mv.exit:                           ; preds = %6
  tail call void @free(ptr noundef %8) #17
  tail call void @free(ptr noundef %9) #17
  br label %arkode_butcher_dot.exit

25:                                               ; preds = %._crit_edge.us.i
  %26 = icmp eq ptr %2, null
  %27 = icmp eq ptr %9, null
  %or.cond3.i29 = or i1 %26, %27
  br i1 %or.cond3.i29, label %arkode_butcher_mv.exit42, label %.preheader.us.i32

.preheader.us.i32:                                ; preds = %25, %._crit_edge.us.i38
  %indvars.iv40.i33 = phi i64 [ %indvars.iv.next41.i39, %._crit_edge.us.i38 ], [ 0, %25 ]
  %28 = getelementptr inbounds nuw ptr, ptr %2, i64 %indvars.iv40.i33
  %29 = load ptr, ptr %28, align 8, !tbaa !12
  %30 = getelementptr inbounds nuw double, ptr %9, i64 %indvars.iv40.i33
  %.promoted.us.i34 = load double, ptr %30, align 8, !tbaa !18
  br label %31

31:                                               ; preds = %31, %.preheader.us.i32
  %indvars.iv.i35 = phi i64 [ 0, %.preheader.us.i32 ], [ %indvars.iv.next.i36, %31 ]
  %32 = phi double [ %.promoted.us.i34, %.preheader.us.i32 ], [ %37, %31 ]
  %33 = getelementptr inbounds nuw double, ptr %29, i64 %indvars.iv.i35
  %34 = load double, ptr %33, align 8, !tbaa !18
  %35 = getelementptr inbounds nuw double, ptr %8, i64 %indvars.iv.i35
  %36 = load double, ptr %35, align 8, !tbaa !18
  %37 = tail call double @llvm.fmuladd.f64(double %34, double %36, double %32)
  %indvars.iv.next.i36 = add nuw nsw i64 %indvars.iv.i35, 1
  %exitcond.not.i37 = icmp eq i64 %indvars.iv.next.i36, %14
  br i1 %exitcond.not.i37, label %._crit_edge.us.i38, label %31

._crit_edge.us.i38:                               ; preds = %31
  store double %37, ptr %30, align 8, !tbaa !18
  %indvars.iv.next41.i39 = add nuw nsw i64 %indvars.iv40.i33, 1
  %exitcond44.not.i40 = icmp eq i64 %indvars.iv.next41.i39, %14
  br i1 %exitcond44.not.i40, label %38, label %.preheader.us.i32

arkode_butcher_mv.exit42:                         ; preds = %25
  tail call void @free(ptr noundef nonnull %8) #17
  tail call void @free(ptr noundef %9) #17
  br label %arkode_butcher_dot.exit

38:                                               ; preds = %._crit_edge.us.i38
  %39 = icmp eq ptr %0, null
  %40 = icmp eq ptr %1, null
  %or.cond.i43 = or i1 %39, %40
  br i1 %or.cond.i43, label %arkode_butcher_vv.exit, label %.preheader.i

.preheader.i:                                     ; preds = %38, %.preheader.i
  %indvars.iv.i46 = phi i64 [ %indvars.iv.next.i47, %.preheader.i ], [ 0, %38 ]
  %41 = getelementptr inbounds nuw double, ptr %0, i64 %indvars.iv.i46
  %42 = load double, ptr %41, align 8, !tbaa !18
  %43 = getelementptr inbounds nuw double, ptr %1, i64 %indvars.iv.i46
  %44 = load double, ptr %43, align 8, !tbaa !18
  %45 = fmul double %42, %44
  %46 = getelementptr inbounds nuw double, ptr %8, i64 %indvars.iv.i46
  store double %45, ptr %46, align 8, !tbaa !18
  %indvars.iv.next.i47 = add nuw nsw i64 %indvars.iv.i46, 1
  %exitcond.not.i48 = icmp eq i64 %indvars.iv.next.i47, %14
  br i1 %exitcond.not.i48, label %.preheader, label %.preheader.i

arkode_butcher_vv.exit:                           ; preds = %38
  tail call void @free(ptr noundef nonnull %8) #17
  tail call void @free(ptr noundef nonnull %9) #17
  br label %arkode_butcher_dot.exit

.preheader:                                       ; preds = %.preheader.i, %.preheader
  %indvars.iv.i52 = phi i64 [ %indvars.iv.next.i53, %.preheader ], [ 0, %.preheader.i ]
  %47 = phi double [ %52, %.preheader ], [ 0.000000e+00, %.preheader.i ]
  %48 = getelementptr inbounds nuw double, ptr %8, i64 %indvars.iv.i52
  %49 = load double, ptr %48, align 8, !tbaa !18
  %50 = getelementptr inbounds nuw double, ptr %9, i64 %indvars.iv.i52
  %51 = load double, ptr %50, align 8, !tbaa !18
  %52 = tail call double @llvm.fmuladd.f64(double %49, double %51, double %47)
  %indvars.iv.next.i53 = add nuw nsw i64 %indvars.iv.i52, 1
  %exitcond.not.i54 = icmp eq i64 %indvars.iv.next.i53, %14
  br i1 %exitcond.not.i54, label %53, label %.preheader

53:                                               ; preds = %.preheader
  tail call void @free(ptr noundef nonnull %8) #17
  tail call void @free(ptr noundef nonnull %9) #17
  %54 = fadd double %52, 0xBFA1111111111111
  %55 = tail call double @llvm.fabs.f64(double %54)
  %56 = fcmp ule double %55, 0x3E50000000000000
  %57 = zext i1 %56 to i32
  br label %arkode_butcher_dot.exit

arkode_butcher_dot.exit:                          ; preds = %53, %arkode_butcher_vv.exit, %arkode_butcher_mv.exit42, %arkode_butcher_mv.exit
  %.0 = phi i32 [ 0, %arkode_butcher_mv.exit ], [ 0, %arkode_butcher_mv.exit42 ], [ 0, %arkode_butcher_vv.exit ], [ %57, %53 ]
  ret i32 %.0
}